target datalayout = "e-m:e-p270:32:32-p271:32:32-p272:64:64-i64:64-i128:128-f80:128-n8:16:32:64-S128"
target triple = "x86_64-pc-linux-gnu"

%struct.avifCodecDecodeInput = type { %struct.avifDecodeSampleArray, i32, i32 }
%struct.avifDecodeSampleArray = type { ptr, i32, i32, i32 }
%struct.avifDecodeSample = type { %struct.avifROData, i32, i32, i32, i64, i64, i8, i32 }
%struct.avifROData = type { ptr, i64 }
%struct.avifDecoder = type { i32, i32, i32, i32, i32, i32, i32, i32, i32, i32, i32, ptr, i32, i32, i32, %struct.avifImageTiming, i64, double, i64, i32, i32, %struct.avifIOStats, %struct.avifDiagnostics, ptr, ptr, i32 }
%struct.avifImageTiming = type { i64, double, i64, double, i64 }
%struct.avifIOStats = type { i64, i64 }
%struct.avifDiagnostics = type { [256 x i8] }
%struct.avifDecoderData = type { ptr, %struct.avifTrackArray, %struct.avifTileArray, [2 x %struct.avifTileInfo], i32, ptr, ptr, [4 x i8], ptr, ptr, i32 }
%struct.avifTrackArray = type { ptr, i32, i32, i32 }
%struct.avifTileArray = type { ptr, i32, i32, i32 }
%struct.avifTileInfo = type { i32, i32, i32, %struct.avifImageGrid }
%struct.avifImageGrid = type { i32, i32, i32, i32 }
%struct.avifTile = type { ptr, i32, ptr, ptr, i32, i32, i8 }

; Function Attrs: nounwind uwtable
define hidden i32 @avifDecoderIsKeyframe(ptr noundef %0, i32 noundef %1) #0 {
  %3 = alloca i32, align 4
  %4 = alloca ptr, align 8
  %5 = alloca i32, align 4
  %6 = alloca i32, align 4
  %7 = alloca ptr, align 8
  store ptr %0, ptr %4, align 8
  store i32 %1, ptr %5, align 4
  %8 = load ptr, ptr %4, align 8
  %9 = getelementptr inbounds nuw %struct.avifDecoder, ptr %8, i32 0, i32 24
  %10 = load ptr, ptr %9, align 8
  %11 = icmp ne ptr %10, null
  br i1 %11, label %12, label %20

12:                                               ; preds = %2
  %13 = load ptr, ptr %4, align 8
  %14 = getelementptr inbounds nuw %struct.avifDecoder, ptr %13, i32 0, i32 24
  %15 = load ptr, ptr %14, align 8
  %16 = getelementptr inbounds nuw %struct.avifDecoderData, ptr %15, i32 0, i32 2
  %17 = getelementptr inbounds nuw %struct.avifTileArray, ptr %16, i32 0, i32 2
  %18 = load i32, ptr %17, align 4
  %19 = icmp eq i32 %18, 0
  br i1 %19, label %20, label %21

20:                                               ; preds = %12, %2
  store i32 0, ptr %3, align 4
  br label %68

21:                                               ; preds = %12
  store i32 0, ptr %6, align 4
  br label %22

22:                                               ; preds = %64, %21
  %23 = load i32, ptr %6, align 4
  %24 = load ptr, ptr %4, align 8
  %25 = getelementptr inbounds nuw %struct.avifDecoder, ptr %24, i32 0, i32 24
  %26 = load ptr, ptr %25, align 8
  %27 = getelementptr inbounds nuw %struct.avifDecoderData, ptr %26, i32 0, i32 2
  %28 = getelementptr inbounds nuw %struct.avifTileArray, ptr %27, i32 0, i32 2
  %29 = load i32, ptr %28, align 4
  %30 = icmp ult i32 %23, %29
  br i1 %30, label %31, label %67

31:                                               ; preds = %22
  %32 = load ptr, ptr %4, align 8
  %33 = getelementptr inbounds nuw %struct.avifDecoder, ptr %32, i32 0, i32 24
  %34 = load ptr, ptr %33, align 8
  %35 = getelementptr inbounds nuw %struct.avifDecoderData, ptr %34, i32 0, i32 2
  %36 = getelementptr inbounds nuw %struct.avifTileArray, ptr %35, i32 0, i32 0
  %37 = load ptr, ptr %36, align 8
  %38 = load i32, ptr %6, align 4
  %39 = zext i32 %38 to i64
  %40 = getelementptr inbounds %struct.avifTile, ptr %37, i64 %39
  store ptr %40, ptr %7, align 8
  %41 = load i32, ptr %5, align 4
  %42 = load ptr, ptr %7, align 8
  %43 = getelementptr inbounds nuw %struct.avifTile, ptr %42, i32 0, i32 0
  %44 = load ptr, ptr %43, align 8
  %45 = getelementptr inbounds nuw %struct.avifCodecDecodeInput, ptr %44, i32 0, i32 0
  %46 = getelementptr inbounds nuw %struct.avifDecodeSampleArray, ptr %45, i32 0, i32 2
  %47 = load i32, ptr %46, align 4
  %48 = icmp uge i32 %41, %47
  br i1 %48, label %62, label %49

49:                                               ; preds = %31
  %50 = load ptr, ptr %7, align 8
  %51 = getelementptr inbounds nuw %struct.avifTile, ptr %50, i32 0, i32 0
  %52 = load ptr, ptr %51, align 8
  %53 = getelementptr inbounds nuw %struct.avifCodecDecodeInput, ptr %52, i32 0, i32 0
  %54 = getelementptr inbounds nuw %struct.avifDecodeSampleArray, ptr %53, i32 0, i32 0
  %55 = load ptr, ptr %54, align 8
  %56 = load i32, ptr %5, align 4
  %57 = zext i32 %56 to i64
  %58 = getelementptr inbounds %struct.avifDecodeSample, ptr %55, i64 %57
  %59 = getelementptr inbounds nuw %struct.avifDecodeSample, ptr %58, i32 0, i32 7
  %60 = load i32, ptr %59, align 4
  %61 = icmp ne i32 %60, 0
  br i1 %61, label %63, label %62

62:                                               ; preds = %49, %31
  store i32 0, ptr %3, align 4
  br label %68

63:                                               ; preds = %49
  br label %64

64:                                               ; preds = %63
  %65 = load i32, ptr %6, align 4
  %66 = add i32 %65, 1
  store i32 %66, ptr %6, align 4
  br label %22, !llvm.loop !53

67:                                               ; preds = %22
  store i32 1, ptr %3, align 4
  br label %68

68:                                               ; preds = %67, %62, %20
  %69 = load i32, ptr %3, align 4
  ret i32 %69
}

; Function Attrs: nounwind uwtable
define hidden i32 @avifDecoderNearestKeyframe(ptr noundef %0, i32 noundef %1) #0 {
  %3 = alloca i32, align 4
  %4 = alloca ptr, align 8
  %5 = alloca i32, align 4
  store ptr %0, ptr %4, align 8
  store i32 %1, ptr %5, align 4
  %6 = load ptr, ptr %4, align 8
  %7 = getelementptr inbounds nuw %struct.avifDecoder, ptr %6, i32 0, i32 24
  %8 = load ptr, ptr %7, align 8
  %9 = icmp ne ptr %8, null
  br i1 %9, label %11, label %10

10:                                               ; preds = %2
  store i32 0, ptr %3, align 4
  br label %27

11:                                               ; preds = %2
  br label %12

12:                                               ; preds = %22, %11
  %13 = load i32, ptr %5, align 4
  %14 = icmp ne i32 %13, 0
  br i1 %14, label %15, label %25

15:                                               ; preds = %12
  %16 = load ptr, ptr %4, align 8
  %17 = load i32, ptr %5, align 4
  %18 = call i32 @avifDecoderIsKeyframe(ptr noundef %16, i32 noundef %17)
  %19 = icmp ne i32 %18, 0
  br i1 %19, label %20, label %21

20:                                               ; preds = %15
  br label %25

21:                                               ; preds = %15
  br label %22

22:                                               ; preds = %21
  %23 = load i32, ptr %5, align 4
  %24 = add i32 %23, -1
  store i32 %24, ptr %5, align 4
  br label %12, !llvm.loop !18

25:                                               ; preds = %20, %12
  %26 = load i32, ptr %5, align 4
  store i32 %26, ptr %3, align 4
  br label %27

27:                                               ; preds = %25, %10
  %28 = load i32, ptr %3, align 4
  ret i32 %28
}

; Function Attrs: nounwind uwtable
define internal i32 @avifDecoderDataFrameFullyDecoded(ptr noundef %0) #0 {
  %2 = alloca i32, align 4
  %3 = alloca ptr, align 8
  %4 = alloca i32, align 4
  store ptr %0, ptr %3, align 8
  store i32 0, ptr %4, align 4
  br label %5

5:                                                ; preds = %26, %1
  %6 = load i32, ptr %4, align 4
  %7 = icmp slt i32 %6, 2
  br i1 %7, label %8, label %29

8:                                                ; preds = %5
  %9 = load ptr, ptr %3, align 8
  %10 = getelementptr inbounds nuw %struct.avifDecoderData, ptr %9, i32 0, i32 3
  %11 = load i32, ptr %4, align 4
  %12 = sext i32 %11 to i64
  %13 = getelementptr inbounds [2 x %struct.avifTileInfo], ptr %10, i64 0, i64 %12
  %14 = getelementptr inbounds nuw %struct.avifTileInfo, ptr %13, i32 0, i32 1
  %15 = load i32, ptr %14, align 4
  %16 = load ptr, ptr %3, align 8
  %17 = getelementptr inbounds nuw %struct.avifDecoderData, ptr %16, i32 0, i32 3
  %18 = load i32, ptr %4, align 4
  %19 = sext i32 %18 to i64
  %20 = getelementptr inbounds [2 x %struct.avifTileInfo], ptr %17, i64 0, i64 %19
  %21 = getelementptr inbounds nuw %struct.avifTileInfo, ptr %20, i32 0, i32 0
  %22 = load i32, ptr %21, align 4
  %23 = icmp ne i32 %15, %22
  br i1 %23, label %24, label %25

24:                                               ; preds = %8
  store i32 0, ptr %2, align 4
  br label %30

25:                                               ; preds = %8
  br label %26

26:                                               ; preds = %25
  %27 = load i32, ptr %4, align 4
  %28 = add nsw i32 %27, 1
  store i32 %28, ptr %4, align 4
  br label %5, !llvm.loop !44

29:                                               ; preds = %5
  store i32 1, ptr %2, align 4
  br label %30

30:                                               ; preds = %29, %24
  %31 = load i32, ptr %2, align 4
  ret i32 %31
}

; Function Attrs: nounwind uwtable
define hidden i32 @avifDecoderNthImage(ptr noundef %0, i32 noundef %1) #0 {
  %3 = alloca i32, align 4
  %4 = alloca ptr, align 8
  %5 = alloca i32, align 4
  %6 = alloca i32, align 4
  %7 = alloca i32, align 4
  %8 = alloca i32, align 4
  store ptr %0, ptr %4, align 8
  store i32 %1, ptr %5, align 4
  %9 = load ptr, ptr %4, align 8
  %10 = getelementptr inbounds nuw %struct.avifDecoder, ptr %9, i32 0, i32 22
  call void @avifDiagnosticsClearError(ptr noundef %10)
  %11 = load ptr, ptr %4, align 8
  %12 = getelementptr inbounds nuw %struct.avifDecoder, ptr %11, i32 0, i32 24
  %13 = load ptr, ptr %12, align 8
  %14 = icmp ne ptr %13, null
  br i1 %14, label %16, label %15

15:                                               ; preds = %2
  store i32 3, ptr %3, align 4
  br label %92

16:                                               ; preds = %2
  %17 = load i32, ptr %5, align 4
  %18 = icmp ugt i32 %17, 2147483647
  br i1 %18, label %25, label %19

19:                                               ; preds = %16
  %20 = load i32, ptr %5, align 4
  %21 = load ptr, ptr %4, align 8
  %22 = getelementptr inbounds nuw %struct.avifDecoder, ptr %21, i32 0, i32 13
  %23 = load i32, ptr %22, align 4
  %24 = icmp sge i32 %20, %23
  br i1 %24, label %25, label %26

25:                                               ; preds = %19, %16
  store i32 16, ptr %3, align 4
  br label %92

26:                                               ; preds = %19
  %27 = load i32, ptr %5, align 4
  store i32 %27, ptr %6, align 4
  %28 = load i32, ptr %6, align 4
  %29 = load ptr, ptr %4, align 8
  %30 = getelementptr inbounds nuw %struct.avifDecoder, ptr %29, i32 0, i32 12
  %31 = load i32, ptr %30, align 8
  %32 = add nsw i32 %31, 1
  %33 = icmp eq i32 %28, %32
  br i1 %33, label %34, label %37

34:                                               ; preds = %26
  %35 = load ptr, ptr %4, align 8
  %36 = call i32 @avifDecoderNextImage(ptr noundef %35)
  store i32 %36, ptr %3, align 4
  br label %92

37:                                               ; preds = %26
  %38 = load i32, ptr %6, align 4
  %39 = load ptr, ptr %4, align 8
  %40 = getelementptr inbounds nuw %struct.avifDecoder, ptr %39, i32 0, i32 12
  %41 = load i32, ptr %40, align 8
  %42 = icmp eq i32 %38, %41
  br i1 %42, label %43, label %51

43:                                               ; preds = %37
  %44 = load ptr, ptr %4, align 8
  %45 = getelementptr inbounds nuw %struct.avifDecoder, ptr %44, i32 0, i32 24
  %46 = load ptr, ptr %45, align 8
  %47 = call i32 @avifDecoderDataFrameFullyDecoded(ptr noundef %46)
  %48 = icmp ne i32 %47, 0
  br i1 %48, label %49, label %50

49:                                               ; preds = %43
  store i32 0, ptr %3, align 4
  br label %92

50:                                               ; preds = %43
  br label %51

51:                                               ; preds = %50, %37
  %52 = load ptr, ptr %4, align 8
  %53 = load i32, ptr %5, align 4
  %54 = call i32 @avifDecoderNearestKeyframe(ptr noundef %52, i32 noundef %53)
  store i32 %54, ptr %7, align 4
  %55 = load i32, ptr %7, align 4
  %56 = load ptr, ptr %4, align 8
  %57 = getelementptr inbounds nuw %struct.avifDecoder, ptr %56, i32 0, i32 12
  %58 = load i32, ptr %57, align 8
  %59 = add nsw i32 %58, 1
  %60 = icmp sgt i32 %55, %59
  br i1 %60, label %67, label %61

61:                                               ; preds = %51
  %62 = load i32, ptr %6, align 4
  %63 = load ptr, ptr %4, align 8
  %64 = getelementptr inbounds nuw %struct.avifDecoder, ptr %63, i32 0, i32 12
  %65 = load i32, ptr %64, align 8
  %66 = icmp sle i32 %62, %65
  br i1 %66, label %67, label %75

67:                                               ; preds = %61, %51
  %68 = load i32, ptr %7, align 4
  %69 = sub nsw i32 %68, 1
  %70 = load ptr, ptr %4, align 8
  %71 = getelementptr inbounds nuw %struct.avifDecoder, ptr %70, i32 0, i32 12
  store i32 %69, ptr %71, align 8
  %72 = load ptr, ptr %4, align 8
  %73 = getelementptr inbounds nuw %struct.avifDecoder, ptr %72, i32 0, i32 24
  %74 = load ptr, ptr %73, align 8
  call void @avifDecoderDataResetCodec(ptr noundef %74)
  br label %75

75:                                               ; preds = %67, %61
  br label %76

76:                                               ; preds = %90, %75
  %77 = load ptr, ptr %4, align 8
  %78 = call i32 @avifDecoderNextImage(ptr noundef %77)
  store i32 %78, ptr %8, align 4
  %79 = load i32, ptr %8, align 4
  %80 = icmp ne i32 %79, 0
  br i1 %80, label %81, label %83

81:                                               ; preds = %76
  %82 = load i32, ptr %8, align 4
  store i32 %82, ptr %3, align 4
  br label %92

83:                                               ; preds = %76
  %84 = load i32, ptr %6, align 4
  %85 = load ptr, ptr %4, align 8
  %86 = getelementptr inbounds nuw %struct.avifDecoder, ptr %85, i32 0, i32 12
  %87 = load i32, ptr %86, align 8
  %88 = icmp eq i32 %84, %87
  br i1 %88, label %89, label %90

89:                                               ; preds = %83
  br label %91

90:                                               ; preds = %83
  br label %76

91:                                               ; preds = %89
  store i32 0, ptr %3, align 4
  br label %92

92:                                               ; preds = %91, %81, %49, %34, %25, %15
  %93 = load i32, ptr %3, align 4
  ret i32 %93
}