; Function Attrs: nounwind uwtable
define hidden i32 @avifDecoderNthImage(ptr noundef %0, i32 noundef %1) local_unnamed_addr #0 {
  %3 = getelementptr inbounds nuw i8, ptr %0, i64 160
  tail call void @avifDiagnosticsClearError(ptr noundef nonnull %3) #13
  %4 = getelementptr inbounds nuw i8, ptr %0, i64 424
  %5 = load ptr, ptr %4, align 8
  %.not = icmp eq ptr %5, null
  br i1 %.not, label %avifDecoderDataFrameFullyDecoded.exit, label %6

6:                                                ; preds = %2
  %7 = icmp slt i32 %1, 0
  br i1 %7, label %avifDecoderDataFrameFullyDecoded.exit, label %8

8:                                                ; preds = %6
  %9 = getelementptr inbounds nuw i8, ptr %0, i64 60
  %10 = load i32, ptr %9, align 4
  %.not29 = icmp slt i32 %1, %10
  br i1 %.not29, label %11, label %avifDecoderDataFrameFullyDecoded.exit

11:                                               ; preds = %8
  %12 = getelementptr inbounds nuw i8, ptr %0, i64 56
  %13 = load i32, ptr %12, align 8
  %14 = add nsw i32 %13, 1
  %15 = icmp eq i32 %1, %14
  br i1 %15, label %16, label %18

16:                                               ; preds = %11
  %17 = tail call i32 @avifDecoderNextImage(ptr noundef nonnull %0)
  br label %avifDecoderDataFrameFullyDecoded.exit

18:                                               ; preds = %11
  %19 = icmp eq i32 %1, %13
  br i1 %19, label %20, label %avifDecoderDataFrameFullyDecoded.exit.thread

20:                                               ; preds = %18
  %21 = getelementptr inbounds nuw i8, ptr %5, i64 56
  br label %23

22:                                               ; preds = %23
  br i1 %24, label %23, label %avifDecoderDataFrameFullyDecoded.exit, !llvm.loop !54

23:                                               ; preds = %22, %20
  %24 = phi i1 [ true, %20 ], [ false, %22 ]
  %indvars.iv.i = phi i64 [ 0, %20 ], [ 1, %22 ]
  %25 = getelementptr inbounds nuw [2 x %struct.avifTileInfo], ptr %21, i64 0, i64 %indvars.iv.i
  %26 = getelementptr inbounds nuw i8, ptr %25, i64 4
  %27 = load i32, ptr %26, align 4
  %28 = load i32, ptr %25, align 4
  %.not.i = icmp eq i32 %27, %28
  br i1 %.not.i, label %22, label %avifDecoderDataFrameFullyDecoded.exit.thread

avifDecoderDataFrameFullyDecoded.exit.thread:     ; preds = %23, %18
  %.not713.i = icmp eq i32 %1, 0
  br i1 %.not713.i, label %avifDecoderNearestKeyframe.exit, label %.lr.ph.i

.lr.ph.i:                                         ; preds = %avifDecoderDataFrameFullyDecoded.exit.thread
  %29 = getelementptr inbounds nuw i8, ptr %5, i64 44
  %30 = load i32, ptr %29, align 4
  %31 = icmp eq i32 %30, 0
  %wide.trip.count.i.i = zext i32 %30 to i64
  br i1 %31, label %avifDecoderNearestKeyframe.exit, label %.lr.ph.split.i

.lr.ph.split.i:                                   ; preds = %.lr.ph.i
  %32 = getelementptr inbounds nuw i8, ptr %5, i64 32
  %33 = load ptr, ptr %32, align 8
  %34 = zext nneg i32 %1 to i64
  br label %.preheader.i.i

.preheader.i.i:                                   ; preds = %.loopexit.i, %.lr.ph.split.i
  %indvars.iv.i34 = phi i64 [ %34, %.lr.ph.split.i ], [ %indvars.iv.next.i, %.loopexit.i ]
  br label %36

35:                                               ; preds = %42
  %indvars.iv.next.i.i = add nuw nsw i64 %indvars.iv.i.i, 1
  %exitcond.not.i.i = icmp eq i64 %indvars.iv.next.i.i, %wide.trip.count.i.i
  br i1 %exitcond.not.i.i, label %avifDecoderIsKeyframe.exit.loopexit16.i, label %36, !llvm.loop !26

36:                                               ; preds = %35, %.preheader.i.i
  %indvars.iv.i.i = phi i64 [ 0, %.preheader.i.i ], [ %indvars.iv.next.i.i, %35 ]
  %37 = getelementptr inbounds nuw %struct.avifTile, ptr %33, i64 %indvars.iv.i.i
  %38 = load ptr, ptr %37, align 8
  %39 = getelementptr inbounds nuw i8, ptr %38, i64 12
  %40 = load i32, ptr %39, align 4
  %41 = zext i32 %40 to i64
  %.not14.i.i = icmp ult i64 %indvars.iv.i34, %41
  br i1 %.not14.i.i, label %42, label %.loopexit.i

42:                                               ; preds = %36
  %43 = load ptr, ptr %38, align 8
  %44 = getelementptr inbounds nuw %struct.avifDecodeSample, ptr %43, i64 %indvars.iv.i34, i32 7
  %45 = load i32, ptr %44, align 4
  %.not15.i.i = icmp eq i32 %45, 0
  br i1 %.not15.i.i, label %.loopexit.i, label %35

.loopexit.i:                                      ; preds = %42, %36
  %indvars.iv.next.i = add nsw i64 %indvars.iv.i34, -1
  %46 = and i64 %indvars.iv.next.i, 4294967295
  %.not7.i = icmp eq i64 %46, 0
  br i1 %.not7.i, label %avifDecoderNearestKeyframe.exit, label %.preheader.i.i, !llvm.loop !27

avifDecoderIsKeyframe.exit.loopexit16.i:          ; preds = %35
  %47 = trunc nuw i64 %indvars.iv.i34 to i32
  br label %avifDecoderNearestKeyframe.exit

avifDecoderNearestKeyframe.exit:                  ; preds = %.loopexit.i, %avifDecoderDataFrameFullyDecoded.exit.thread, %.lr.ph.i, %avifDecoderIsKeyframe.exit.loopexit16.i
  %.06.i35 = phi i32 [ 0, %avifDecoderDataFrameFullyDecoded.exit.thread ], [ %47, %avifDecoderIsKeyframe.exit.loopexit16.i ], [ 0, %.lr.ph.i ], [ 0, %.loopexit.i ]
  %48 = icmp sle i32 %.06.i35, %14
  %.not31 = icmp sgt i32 %1, %13
  %or.cond = and i1 %.not31, %48
  br i1 %or.cond, label %.preheader, label %49

49:                                               ; preds = %avifDecoderNearestKeyframe.exit
  %50 = add nsw i32 %.06.i35, -1
  store i32 %50, ptr %12, align 8
  tail call fastcc void @avifDecoderDataResetCodec(ptr noundef nonnull %5)
  br label %.preheader

.preheader:                                       ; preds = %avifDecoderNearestKeyframe.exit, %49
  br label %51

51:                                               ; preds = %.preheader, %53
  %52 = tail call i32 @avifDecoderNextImage(ptr noundef %0)
  %.not32 = icmp eq i32 %52, 0
  br i1 %.not32, label %53, label %avifDecoderDataFrameFullyDecoded.exit

53:                                               ; preds = %51
  %54 = load i32, ptr %12, align 8
  %55 = icmp eq i32 %1, %54
  br i1 %55, label %avifDecoderDataFrameFullyDecoded.exit, label %51

avifDecoderDataFrameFullyDecoded.exit:            ; preds = %22, %53, %51, %6, %8, %2, %16
  %.0 = phi i32 [ %17, %16 ], [ 3, %2 ], [ 16, %8 ], [ 16, %6 ], [ 0, %53 ], [ %52, %51 ], [ 0, %22 ]
  ret i32 %.0
}